; Function Attrs: mustprogress nounwind uwtable
define hidden void @_ZN16JvmtiThreadState20decr_cur_stack_depthEv(ptr nocapture noundef nonnull align 8 dereferenceable(184) %0) local_unnamed_addr #0 align 2 {
  %2 = tail call align 8 ptr @llvm.threadlocal.address.p0(ptr align 8 @_ZN6Thread12_thr_currentE)
  %3 = load ptr, ptr %2, align 8
  %4 = load ptr, ptr %0, align 8
  %5 = icmp eq ptr %3, %4
  br i1 %5, label %8, label %6

6:                                                ; preds = %1
  %7 = load ptr, ptr @g_assert_poison, align 8
  store i8 88, ptr %7, align 1
  tail call void (ptr, i32, ptr, ptr, ...) @_Z15report_vm_errorPKciS0_S0_z(ptr noundef nonnull @.str, i32 noundef 840, ptr noundef nonnull @.str.6, ptr noundef nonnull @.str.7) #14
  unreachable

8:                                                ; preds = %1
  %9 = icmp eq ptr %3, null
  %10 = getelementptr inbounds i8, ptr %0, i64 76
  %11 = getelementptr inbounds i8, ptr %4, i64 1544
  %.in.in.i = select i1 %9, ptr %10, ptr %11
  %.in.i = load i32, ptr %.in.in.i, align 4
  %.not1 = icmp eq i32 %.in.i, 0
  %12 = getelementptr inbounds i8, ptr %0, i64 72
  br i1 %.not1, label %.thread, label %13

.thread:                                          ; preds = %8
  store i32 -99, ptr %12, align 8
  br label %17

13:                                               ; preds = %8
  %.pre = load i32, ptr %12, align 8
  %.not = icmp eq i32 %.pre, -99
  br i1 %.not, label %17, label %14

14:                                               ; preds = %13
  %15 = getelementptr inbounds i8, ptr %0, i64 72
  %16 = add nsw i32 %.pre, -1
  store i32 %16, ptr %15, align 8
  br label %17

17:                                               ; preds = %.thread, %14, %13
  ret void
}